(dp0
S'request_token'
p1
ccopy_reg
_reconstructor
p2
(coauth2
Token
p3
c__builtin__
object
p4
Ntp5
Rp6
(dp7
S'secret'
p8
S'46b222a0fb9a2dad129d1a7409d760cf'
p9
sS'verifier'
p10
S'288098c054'
p11
sS'key'
p12
S'6f30f88c9c98cd452354105e988ed424050020102'
p13
sbsS'access_token'
p14
g2
(g3
g4
Ntp15
Rp16
(dp17
g8
S'03f3c9c1d37c2fc740a6bd7640a2df61'
p18
sg12
S'2e3231e1bbe18efdbb53b8f356bdc61d050020154'
p19
sbs.